target datalayout = "e-m:e-p270:32:32-p271:32:32-p272:64:64-i64:64-i128:128-f80:128-n8:16:32:64-S128"
target triple = "x86_64-pc-linux-gnu"

%"class.llvm::SmallVectorBase" = type { ptr, i32, i32 }
%"class.llvm::SmallVector.312" = type { %"class.llvm::SmallVectorImpl.313", %"struct.llvm::SmallVectorStorage.316" }
%"class.llvm::SmallVectorImpl.313" = type { %"class.llvm::SmallVectorTemplateBase.314" }
%"class.llvm::SmallVectorTemplateBase.314" = type { %"class.llvm::SmallVectorTemplateCommon.315" }
%"class.llvm::SmallVectorTemplateCommon.315" = type { %"class.llvm::SmallVectorBase" }
%"struct.llvm::SmallVectorStorage.316" = type { [64 x i8] }
%"struct.llvm::EVT" = type { %"class.llvm::MVT", ptr }
%"class.llvm::MVT" = type { i16 }
%"class.llvm::SmallVectorImpl.43" = type { %"class.llvm::SmallVectorTemplateBase.44" }
%"class.llvm::SmallVectorTemplateBase.44" = type { %"class.llvm::SmallVectorTemplateCommon.45" }
%"class.llvm::SmallVectorTemplateCommon.45" = type { %"class.llvm::SmallVectorBase" }
%"struct.llvm::Align" = type { i8 }
%"struct.llvm::ISD::ArgFlagsTy" = type { i64, i32, i32 }
%"class.llvm::SmallVectorImpl.332" = type { %"class.llvm::SmallVectorTemplateBase.333" }
%"class.llvm::SmallVectorTemplateBase.333" = type { %"class.llvm::SmallVectorTemplateCommon.334" }
%"class.llvm::SmallVectorTemplateCommon.334" = type { %"class.llvm::SmallVectorBase" }
%"class.llvm::CCState" = type <{ i32, i8, i8, [2 x i8], ptr, ptr, ptr, ptr, i8, [7 x i8], i64, %"struct.llvm::Align", [7 x i8], %"class.llvm::SmallVector.336", %"class.llvm::SmallVector.338", %"class.llvm::SmallVector.312", %"class.llvm::SmallVector.340", i32, [4 x i8] }>
%"class.llvm::SmallVector.336" = type { %"class.llvm::SmallVectorImpl.43", %"struct.llvm::SmallVectorStorage.337" }
%"struct.llvm::SmallVectorStorage.337" = type { [64 x i8] }
%"class.llvm::SmallVector.338" = type { %"class.llvm::SmallVectorImpl.332", %"struct.llvm::SmallVectorStorage.339" }
%"struct.llvm::SmallVectorStorage.339" = type { [128 x i8] }
%"class.llvm::SmallVector.340" = type { %"class.llvm::SmallVectorImpl.341", %"struct.llvm::SmallVectorStorage.344" }
%"class.llvm::SmallVectorImpl.341" = type { %"class.llvm::SmallVectorTemplateBase.342" }
%"class.llvm::SmallVectorTemplateBase.342" = type { %"class.llvm::SmallVectorTemplateCommon.343" }
%"class.llvm::SmallVectorTemplateCommon.343" = type { %"class.llvm::SmallVectorBase" }
%"struct.llvm::SmallVectorStorage.344" = type { [32 x i8] }
%"struct.llvm::CallLowering::ValueAssigner" = type <{ ptr, ptr, ptr, i64, i8, [7 x i8] }>

; Function Attrs: mustprogress nounwind uwtable
define linkonce_odr hidden noundef zeroext i1 @_ZNK4llvm3EVTneES0_(ptr noundef nonnull align 8 dereferenceable(16) %0, i16 %1, ptr %2) #0 comdat align 2 {
  %4 = alloca i1, align 1
  %5 = alloca %"struct.llvm::EVT", align 8
  %6 = alloca ptr, align 8
  %7 = getelementptr inbounds nuw { i16, ptr }, ptr %5, i32 0, i32 0
  store i16 %1, ptr %7, align 8
  %8 = getelementptr inbounds nuw { i16, ptr }, ptr %5, i32 0, i32 1
  store ptr %2, ptr %8, align 8
  store ptr %0, ptr %6, align 8
  %9 = load ptr, ptr %6, align 8
  %10 = getelementptr inbounds nuw %"struct.llvm::EVT", ptr %9, i32 0, i32 0
  %11 = getelementptr inbounds nuw %"class.llvm::MVT", ptr %10, i32 0, i32 0
  %12 = load i16, ptr %11, align 8
  %13 = zext i16 %12 to i32
  %14 = getelementptr inbounds nuw %"struct.llvm::EVT", ptr %5, i32 0, i32 0
  %15 = getelementptr inbounds nuw %"class.llvm::MVT", ptr %14, i32 0, i32 0
  %16 = load i16, ptr %15, align 8
  %17 = zext i16 %16 to i32
  %18 = icmp ne i32 %13, %17
  br i1 %18, label %19, label %20

19:                                               ; preds = %3
  store i1 true, ptr %4, align 1
  br label %33

20:                                               ; preds = %3
  %21 = getelementptr inbounds nuw %"struct.llvm::EVT", ptr %9, i32 0, i32 0
  %22 = getelementptr inbounds nuw %"class.llvm::MVT", ptr %21, i32 0, i32 0
  %23 = load i16, ptr %22, align 8
  %24 = zext i16 %23 to i32
  %25 = icmp eq i32 %24, 0
  br i1 %25, label %26, label %32

26:                                               ; preds = %20
  %27 = getelementptr inbounds nuw %"struct.llvm::EVT", ptr %9, i32 0, i32 1
  %28 = load ptr, ptr %27, align 8
  %29 = getelementptr inbounds nuw %"struct.llvm::EVT", ptr %5, i32 0, i32 1
  %30 = load ptr, ptr %29, align 8
  %31 = icmp ne ptr %28, %30
  store i1 %31, ptr %4, align 1
  br label %33

32:                                               ; preds = %20
  store i1 false, ptr %4, align 1
  br label %33

33:                                               ; preds = %32, %26, %19
  %34 = load i1, ptr %4, align 1
  ret i1 %34
}

; Function Attrs: mustprogress nounwind uwtable
define linkonce_odr hidden noundef i64 @_ZNK4llvm7CCState12getStackSizeEv(ptr noundef nonnull align 8 dereferenceable(420) %0) #0 comdat align 2 {
  %2 = alloca ptr, align 8
  store ptr %0, ptr %2, align 8
  %3 = load ptr, ptr %2, align 8
  %4 = getelementptr inbounds nuw %"class.llvm::CCState", ptr %3, i32 0, i32 10
  %5 = load i64, ptr %4, align 8
  ret i64 %5
}

; Function Attrs: mustprogress nounwind uwtable
define linkonce_odr hidden noundef ptr @_ZNK4llvm12CallLowering13ValueAssigner11getAssignFnEb(ptr noundef nonnull align 8 dereferenceable(33) %0, i1 noundef zeroext %1) #0 comdat align 2 {
  %3 = alloca ptr, align 8
  %4 = alloca i8, align 1
  store ptr %0, ptr %3, align 8
  %5 = zext i1 %1 to i8
  store i8 %5, ptr %4, align 1
  %6 = load ptr, ptr %3, align 8
  %7 = load i8, ptr %4, align 1
  %8 = trunc i8 %7 to i1
  br i1 %8, label %9, label %12

9:                                                ; preds = %2
  %10 = getelementptr inbounds nuw %"struct.llvm::CallLowering::ValueAssigner", ptr %6, i32 0, i32 2
  %11 = load ptr, ptr %10, align 8
  br label %15

12:                                               ; preds = %2
  %13 = getelementptr inbounds nuw %"struct.llvm::CallLowering::ValueAssigner", ptr %6, i32 0, i32 1
  %14 = load ptr, ptr %13, align 8
  br label %15

15:                                               ; preds = %12, %9
  %16 = phi ptr [ %11, %9 ], [ %14, %12 ]
  ret ptr %16
}

; Function Attrs: mustprogress nounwind uwtable
define linkonce_odr hidden noundef zeroext i1 @_ZNK4llvm7CCState8isVarArgEv(ptr noundef nonnull align 8 dereferenceable(420) %0) #0 comdat align 2 {
  %2 = alloca ptr, align 8
  store ptr %0, ptr %2, align 8
  %3 = load ptr, ptr %2, align 8
  %4 = getelementptr inbounds nuw %"class.llvm::CCState", ptr %3, i32 0, i32 1
  %5 = load i8, ptr %4, align 4
  %6 = trunc i8 %5 to i1
  ret i1 %6
}

; Function Attrs: mustprogress nounwind uwtable
define linkonce_odr hidden void @_ZN4llvm3MVTC2ENS0_15SimpleValueTypeE(ptr noundef nonnull align 2 dereferenceable(2) %0, i16 noundef zeroext %1) unnamed_addr #0 comdat align 2 {
  %3 = alloca ptr, align 8
  %4 = alloca i16, align 2
  store ptr %0, ptr %3, align 8
  store i16 %1, ptr %4, align 2
  %5 = load ptr, ptr %3, align 8
  %6 = getelementptr inbounds nuw %"class.llvm::MVT", ptr %5, i32 0, i32 0
  %7 = load i16, ptr %4, align 2
  store i16 %7, ptr %6, align 2
  ret void
}

; Function Attrs: mustprogress nounwind uwtable
define linkonce_odr hidden noundef zeroext i1 @_ZNK4llvm3EVTeqES0_(ptr noundef nonnull align 8 dereferenceable(16) %0, i16 %1, ptr %2) #0 comdat align 2 {
  %4 = alloca %"struct.llvm::EVT", align 8
  %5 = alloca ptr, align 8
  %6 = alloca %"struct.llvm::EVT", align 8
  %7 = getelementptr inbounds nuw { i16, ptr }, ptr %4, i32 0, i32 0
  store i16 %1, ptr %7, align 8
  %8 = getelementptr inbounds nuw { i16, ptr }, ptr %4, i32 0, i32 1
  store ptr %2, ptr %8, align 8
  store ptr %0, ptr %5, align 8
  %9 = load ptr, ptr %5, align 8
  call void @llvm.memcpy.p0.p0.i64(ptr align 8 %6, ptr align 8 %4, i64 16, i1 false)
  %10 = getelementptr inbounds nuw { i16, ptr }, ptr %6, i32 0, i32 0
  %11 = load i16, ptr %10, align 8
  %12 = getelementptr inbounds nuw { i16, ptr }, ptr %6, i32 0, i32 1
  %13 = load ptr, ptr %12, align 8
  %14 = call noundef zeroext i1 @_ZNK4llvm3EVTneES0_(ptr noundef nonnull align 8 dereferenceable(16) %9, i16 %11, ptr %13)
  %15 = xor i1 %14, true
  ret i1 %15
}

; Function Attrs: mustprogress nounwind uwtable
define linkonce_odr hidden void @_ZN4llvm3EVTC2ENS_3MVT15SimpleValueTypeE(ptr noundef nonnull align 8 dereferenceable(16) %0, i16 noundef zeroext %1) unnamed_addr #0 comdat align 2 {
  %3 = alloca ptr, align 8
  %4 = alloca i16, align 2
  store ptr %0, ptr %3, align 8
  store i16 %1, ptr %4, align 2
  %5 = load ptr, ptr %3, align 8
  %6 = getelementptr inbounds nuw %"struct.llvm::EVT", ptr %5, i32 0, i32 0
  %7 = load i16, ptr %4, align 2
  call void @_ZN4llvm3MVTC2ENS0_15SimpleValueTypeE(ptr noundef nonnull align 2 dereferenceable(2) %6, i16 noundef zeroext %7)
  %8 = getelementptr inbounds nuw %"struct.llvm::EVT", ptr %5, i32 0, i32 1
  store ptr null, ptr %8, align 8
  ret void
}

; Function Attrs: mustprogress nounwind uwtable
define linkonce_odr hidden noundef zeroext i1 @_ZN4llvm12CallLowering13ValueAssigner9assignArgEjNS_3EVTENS_3MVTES3_NS_11CCValAssign7LocInfoERKNS0_7ArgInfoENS_3ISD10ArgFlagsTyERNS_7CCStateE(ptr noundef nonnull align 8 dereferenceable(33) %0, i32 noundef %1, i16 %2, ptr %3, i16 %4, i16 %5, i32 noundef %6, ptr noundef nonnull align 8 dereferenceable(164) %7, ptr noundef byval(%"struct.llvm::ISD::ArgFlagsTy") align 8 %8, ptr noundef nonnull align 8 dereferenceable(420) %9) unnamed_addr #0 comdat align 2 {
  %11 = alloca i1, align 1
  %12 = alloca %"struct.llvm::EVT", align 8
  %13 = alloca %"class.llvm::MVT", align 2
  %14 = alloca %"class.llvm::MVT", align 2
  %15 = alloca ptr, align 8
  %16 = alloca i32, align 4
  %17 = alloca i32, align 4
  %18 = alloca ptr, align 8
  %19 = alloca ptr, align 8
  %20 = alloca %"class.llvm::MVT", align 2
  %21 = alloca %"class.llvm::MVT", align 2
  %22 = alloca %"struct.llvm::ISD::ArgFlagsTy", align 4
  %23 = getelementptr inbounds nuw { i16, ptr }, ptr %12, i32 0, i32 0
  store i16 %2, ptr %23, align 8
  %24 = getelementptr inbounds nuw { i16, ptr }, ptr %12, i32 0, i32 1
  store ptr %3, ptr %24, align 8
  %25 = getelementptr inbounds nuw %"class.llvm::MVT", ptr %13, i32 0, i32 0
  store i16 %4, ptr %25, align 2
  %26 = getelementptr inbounds nuw %"class.llvm::MVT", ptr %14, i32 0, i32 0
  store i16 %5, ptr %26, align 2
  store ptr %0, ptr %15, align 8
  store i32 %1, ptr %16, align 4
  store i32 %6, ptr %17, align 4
  store ptr %7, ptr %18, align 8
  store ptr %9, ptr %19, align 8
  %27 = load ptr, ptr %15, align 8
  %28 = load ptr, ptr %19, align 8
  %29 = call noundef zeroext i1 @_ZNK4llvm7CCState8isVarArgEv(ptr noundef nonnull align 8 dereferenceable(420) %28)
  %30 = call noundef ptr @_ZNK4llvm12CallLowering13ValueAssigner11getAssignFnEb(ptr noundef nonnull align 8 dereferenceable(33) %27, i1 noundef zeroext %29)
  %31 = load i32, ptr %16, align 4
  call void @llvm.memcpy.p0.p0.i64(ptr align 2 %20, ptr align 2 %13, i64 2, i1 false)
  call void @llvm.memcpy.p0.p0.i64(ptr align 2 %21, ptr align 2 %14, i64 2, i1 false)
  %32 = load i32, ptr %17, align 4
  call void @llvm.memcpy.p0.p0.i64(ptr align 4 %22, ptr align 8 %8, i64 16, i1 false)
  %33 = load ptr, ptr %19, align 8
  %34 = getelementptr inbounds nuw %"class.llvm::MVT", ptr %20, i32 0, i32 0
  %35 = load i16, ptr %34, align 2
  %36 = getelementptr inbounds nuw %"class.llvm::MVT", ptr %21, i32 0, i32 0
  %37 = load i16, ptr %36, align 2
  %38 = getelementptr inbounds nuw { i64, i64 }, ptr %22, i32 0, i32 0
  %39 = load i64, ptr %38, align 4
  %40 = getelementptr inbounds nuw { i64, i64 }, ptr %22, i32 0, i32 1
  %41 = load i64, ptr %40, align 4
  %42 = call noundef zeroext i1 %30(i32 noundef %31, i16 %35, i16 %37, i32 noundef %32, i64 %39, i64 %41, ptr noundef nonnull align 8 dereferenceable(420) %33)
  br i1 %42, label %43, label %44

43:                                               ; preds = %10
  store i1 true, ptr %11, align 1
  br label %48

44:                                               ; preds = %10
  %45 = load ptr, ptr %19, align 8
  %46 = call noundef i64 @_ZNK4llvm7CCState12getStackSizeEv(ptr noundef nonnull align 8 dereferenceable(420) %45)
  %47 = getelementptr inbounds nuw %"struct.llvm::CallLowering::ValueAssigner", ptr %27, i32 0, i32 3
  store i64 %46, ptr %47, align 8
  store i1 false, ptr %11, align 1
  br label %48

48:                                               ; preds = %44, %43
  %49 = load i1, ptr %11, align 1
  ret i1 %49
}

; Function Attrs: mustprogress nounwind uwtable
define internal void @_ZL32applyStackPassedSmallTypeDAGHackN4llvm3EVTERNS_3MVTES2_(i16 %0, ptr %1, ptr noundef nonnull align 2 dereferenceable(2) %2, ptr noundef nonnull align 2 dereferenceable(2) %3) #0 {
  %5 = alloca %"struct.llvm::EVT", align 8
  %6 = alloca ptr, align 8
  %7 = alloca ptr, align 8
  %8 = alloca %"struct.llvm::EVT", align 8
  %9 = alloca %"struct.llvm::EVT", align 8
  %10 = alloca %"class.llvm::MVT", align 2
  %11 = alloca %"struct.llvm::EVT", align 8
  %12 = alloca %"class.llvm::MVT", align 2
  %13 = getelementptr inbounds nuw { i16, ptr }, ptr %5, i32 0, i32 0
  store i16 %0, ptr %13, align 8
  %14 = getelementptr inbounds nuw { i16, ptr }, ptr %5, i32 0, i32 1
  store ptr %1, ptr %14, align 8
  store ptr %2, ptr %6, align 8
  store ptr %3, ptr %7, align 8
  call void @_ZN4llvm3EVTC2ENS_3MVT15SimpleValueTypeE(ptr noundef nonnull align 8 dereferenceable(16) %8, i16 noundef zeroext 2)
  %15 = getelementptr inbounds nuw { i16, ptr }, ptr %8, i32 0, i32 0
  %16 = load i16, ptr %15, align 8
  %17 = getelementptr inbounds nuw { i16, ptr }, ptr %8, i32 0, i32 1
  %18 = load ptr, ptr %17, align 8
  %19 = call noundef zeroext i1 @_ZNK4llvm3EVTeqES0_(ptr noundef nonnull align 8 dereferenceable(16) %5, i16 %16, ptr %18)
  br i1 %19, label %26, label %20

20:                                               ; preds = %4
  call void @_ZN4llvm3EVTC2ENS_3MVT15SimpleValueTypeE(ptr noundef nonnull align 8 dereferenceable(16) %9, i16 noundef zeroext 5)
  %21 = getelementptr inbounds nuw { i16, ptr }, ptr %9, i32 0, i32 0
  %22 = load i16, ptr %21, align 8
  %23 = getelementptr inbounds nuw { i16, ptr }, ptr %9, i32 0, i32 1
  %24 = load ptr, ptr %23, align 8
  %25 = call noundef zeroext i1 @_ZNK4llvm3EVTeqES0_(ptr noundef nonnull align 8 dereferenceable(16) %5, i16 %22, ptr %24)
  br i1 %25, label %26, label %29

26:                                               ; preds = %20, %4
  call void @_ZN4llvm3MVTC2ENS0_15SimpleValueTypeE(ptr noundef nonnull align 2 dereferenceable(2) %10, i16 noundef zeroext 5)
  %27 = load ptr, ptr %7, align 8
  call void @llvm.memcpy.p0.p0.i64(ptr align 2 %27, ptr align 2 %10, i64 2, i1 false)
  %28 = load ptr, ptr %6, align 8
  call void @llvm.memcpy.p0.p0.i64(ptr align 2 %28, ptr align 2 %27, i64 2, i1 false)
  br label %39

29:                                               ; preds = %20
  call void @_ZN4llvm3EVTC2ENS_3MVT15SimpleValueTypeE(ptr noundef nonnull align 8 dereferenceable(16) %11, i16 noundef zeroext 6)
  %30 = getelementptr inbounds nuw { i16, ptr }, ptr %11, i32 0, i32 0
  %31 = load i16, ptr %30, align 8
  %32 = getelementptr inbounds nuw { i16, ptr }, ptr %11, i32 0, i32 1
  %33 = load ptr, ptr %32, align 8
  %34 = call noundef zeroext i1 @_ZNK4llvm3EVTeqES0_(ptr noundef nonnull align 8 dereferenceable(16) %5, i16 %31, ptr %33)
  br i1 %34, label %35, label %38

35:                                               ; preds = %29
  call void @_ZN4llvm3MVTC2ENS0_15SimpleValueTypeE(ptr noundef nonnull align 2 dereferenceable(2) %12, i16 noundef zeroext 6)
  %36 = load ptr, ptr %7, align 8
  call void @llvm.memcpy.p0.p0.i64(ptr align 2 %36, ptr align 2 %12, i64 2, i1 false)
  %37 = load ptr, ptr %6, align 8
  call void @llvm.memcpy.p0.p0.i64(ptr align 2 %37, ptr align 2 %36, i64 2, i1 false)
  br label %38

38:                                               ; preds = %35, %29
  br label %39

39:                                               ; preds = %38, %26
  ret void
}

; Function Attrs: mustprogress nounwind uwtable
define internal noundef zeroext i1 @_ZN12_GLOBAL__N_128AArch64IncomingValueAssigner9assignArgEjN4llvm3EVTENS1_3MVTES3_NS1_11CCValAssign7LocInfoERKNS1_12CallLowering7ArgInfoENS1_3ISD10ArgFlagsTyERNS1_7CCStateE(ptr noundef nonnull align 8 dereferenceable(33) %0, i32 noundef %1, i16 %2, ptr %3, i16 %4, i16 %5, i32 noundef %6, ptr noundef nonnull align 8 dereferenceable(164) %7, ptr noundef byval(%"struct.llvm::ISD::ArgFlagsTy") align 8 %8, ptr noundef nonnull align 8 dereferenceable(420) %9) unnamed_addr #0 align 2 {
  %11 = alloca %"struct.llvm::EVT", align 8
  %12 = alloca %"class.llvm::MVT", align 2
  %13 = alloca %"class.llvm::MVT", align 2
  %14 = alloca ptr, align 8
  %15 = alloca i32, align 4
  %16 = alloca i32, align 4
  %17 = alloca ptr, align 8
  %18 = alloca ptr, align 8
  %19 = alloca %"struct.llvm::EVT", align 8
  %20 = alloca %"struct.llvm::EVT", align 8
  %21 = alloca %"class.llvm::MVT", align 2
  %22 = alloca %"class.llvm::MVT", align 2
  %23 = alloca %"struct.llvm::ISD::ArgFlagsTy", align 8
  %24 = getelementptr inbounds nuw { i16, ptr }, ptr %11, i32 0, i32 0
  store i16 %2, ptr %24, align 8
  %25 = getelementptr inbounds nuw { i16, ptr }, ptr %11, i32 0, i32 1
  store ptr %3, ptr %25, align 8
  %26 = getelementptr inbounds nuw %"class.llvm::MVT", ptr %12, i32 0, i32 0
  store i16 %4, ptr %26, align 2
  %27 = getelementptr inbounds nuw %"class.llvm::MVT", ptr %13, i32 0, i32 0
  store i16 %5, ptr %27, align 2
  store ptr %0, ptr %14, align 8
  store i32 %1, ptr %15, align 4
  store i32 %6, ptr %16, align 4
  store ptr %7, ptr %17, align 8
  store ptr %9, ptr %18, align 8
  %28 = load ptr, ptr %14, align 8
  call void @llvm.memcpy.p0.p0.i64(ptr align 8 %19, ptr align 8 %11, i64 16, i1 false)
  %29 = getelementptr inbounds nuw { i16, ptr }, ptr %19, i32 0, i32 0
  %30 = load i16, ptr %29, align 8
  %31 = getelementptr inbounds nuw { i16, ptr }, ptr %19, i32 0, i32 1
  %32 = load ptr, ptr %31, align 8
  call void @_ZL32applyStackPassedSmallTypeDAGHackN4llvm3EVTERNS_3MVTES2_(i16 %30, ptr %32, ptr noundef nonnull align 2 dereferenceable(2) %12, ptr noundef nonnull align 2 dereferenceable(2) %13)
  %33 = load i32, ptr %15, align 4
  call void @llvm.memcpy.p0.p0.i64(ptr align 8 %20, ptr align 8 %11, i64 16, i1 false)
  call void @llvm.memcpy.p0.p0.i64(ptr align 2 %21, ptr align 2 %12, i64 2, i1 false)
  call void @llvm.memcpy.p0.p0.i64(ptr align 2 %22, ptr align 2 %13, i64 2, i1 false)
  %34 = load i32, ptr %16, align 4
  %35 = load ptr, ptr %17, align 8
  call void @llvm.memcpy.p0.p0.i64(ptr align 4 %23, ptr align 8 %8, i64 16, i1 false)
  %36 = load ptr, ptr %18, align 8
  %37 = getelementptr inbounds nuw { i16, ptr }, ptr %20, i32 0, i32 0
  %38 = load i16, ptr %37, align 8
  %39 = getelementptr inbounds nuw { i16, ptr }, ptr %20, i32 0, i32 1
  %40 = load ptr, ptr %39, align 8
  %41 = getelementptr inbounds nuw %"class.llvm::MVT", ptr %21, i32 0, i32 0
  %42 = load i16, ptr %41, align 2
  %43 = getelementptr inbounds nuw %"class.llvm::MVT", ptr %22, i32 0, i32 0
  %44 = load i16, ptr %43, align 2
  %45 = call noundef zeroext i1 @_ZN4llvm12CallLowering13ValueAssigner9assignArgEjNS_3EVTENS_3MVTES3_NS_11CCValAssign7LocInfoERKNS0_7ArgInfoENS_3ISD10ArgFlagsTyERNS_7CCStateE(ptr noundef nonnull align 8 dereferenceable(33) %28, i32 noundef %33, i16 %38, ptr %40, i16 %42, i16 %44, i32 noundef %34, ptr noundef nonnull align 8 dereferenceable(164) %35, ptr noundef byval(%"struct.llvm::ISD::ArgFlagsTy") align 8 %23, ptr noundef nonnull align 8 dereferenceable(420) %36)
  ret i1 %45
}