; Function Attrs: mustprogress nounwind uwtable
define internal noundef zeroext i1 @_ZN12_GLOBAL__N_128AArch64IncomingValueAssigner9assignArgEjN4llvm3EVTENS1_3MVTES3_NS1_11CCValAssign7LocInfoERKNS1_12CallLowering7ArgInfoENS1_3ISD10ArgFlagsTyERNS1_7CCStateE(ptr noundef nonnull align 8 captures(none) dereferenceable(33) %0, i32 noundef %1, i16 %2, ptr readnone captures(none) %3, i16 %4, i16 %5, i32 noundef %6, ptr nonnull readnone align 8 captures(none) %7, ptr noundef readonly byval(%"struct.llvm::ISD::ArgFlagsTy") align 8 captures(none) %8, ptr noundef nonnull align 8 dereferenceable(420) %9) unnamed_addr #1 align 2 {
  switch i16 %2, label %_ZL32applyStackPassedSmallTypeDAGHackN4llvm3EVTERNS_3MVTES2_.exit [
    i16 2, label %_ZNK4llvm3EVTeqES0_.exit9.sink.split.i
    i16 5, label %_ZNK4llvm3EVTeqES0_.exit9.sink.split.i
    i16 6, label %11
  ]

11:                                               ; preds = %10
  br label %_ZL32applyStackPassedSmallTypeDAGHackN4llvm3EVTERNS_3MVTES2_.exit

_ZNK4llvm3EVTeqES0_.exit9.sink.split.i:           ; preds = %10, %10
  br label %_ZL32applyStackPassedSmallTypeDAGHackN4llvm3EVTERNS_3MVTES2_.exit

_ZL32applyStackPassedSmallTypeDAGHackN4llvm3EVTERNS_3MVTES2_.exit: ; preds = %11, %10, %_ZNK4llvm3EVTeqES0_.exit9.sink.split.i
  %.sroa.012.0 = phi i16 [ %4, %10 ], [ 6, %11 ], [ 5, %_ZNK4llvm3EVTeqES0_.exit9.sink.split.i ]
  %.sroa.0.0 = phi i16 [ %5, %10 ], [ 6, %11 ], [ 5, %_ZNK4llvm3EVTeqES0_.exit9.sink.split.i ]
  %.sroa.014.0.copyload = load i64, ptr %8, align 8
  %.sroa.2.0..sroa_idx = getelementptr inbounds nuw i8, ptr %8, i64 8
  %.sroa.2.0.copyload = load i64, ptr %.sroa.2.0..sroa_idx, align 8
  %12 = getelementptr inbounds nuw i8, ptr %9, i64 4
  %13 = load i8, ptr %12, align 4
  %14 = trunc i8 %13 to i1
  %.in.v.i.i = select i1 %14, i64 16, i64 8
  %.in.i.i = getelementptr inbounds nuw i8, ptr %0, i64 %.in.v.i.i
  %15 = load ptr, ptr %.in.i.i, align 8
  %16 = tail call noundef zeroext i1 %15(i32 noundef %1, i16 %.sroa.012.0, i16 %.sroa.0.0, i32 noundef %6, i64 %.sroa.014.0.copyload, i64 %.sroa.2.0.copyload, ptr noundef nonnull align 8 dereferenceable(420) %9) #15
  br i1 %16, label %_ZN4llvm12CallLowering13ValueAssigner9assignArgEjNS_3EVTENS_3MVTES3_NS_11CCValAssign7LocInfoERKNS0_7ArgInfoENS_3ISD10ArgFlagsTyERNS_7CCStateE.exit, label %17

17:                                               ; preds = %_ZL32applyStackPassedSmallTypeDAGHackN4llvm3EVTERNS_3MVTES2_.exit
  %18 = getelementptr inbounds nuw i8, ptr %9, i64 48
  %19 = load i64, ptr %18, align 8
  %20 = getelementptr inbounds nuw i8, ptr %0, i64 24
  store i64 %19, ptr %20, align 8
  br label %_ZN4llvm12CallLowering13ValueAssigner9assignArgEjNS_3EVTENS_3MVTES3_NS_11CCValAssign7LocInfoERKNS0_7ArgInfoENS_3ISD10ArgFlagsTyERNS_7CCStateE.exit

_ZN4llvm12CallLowering13ValueAssigner9assignArgEjNS_3EVTENS_3MVTES3_NS_11CCValAssign7LocInfoERKNS0_7ArgInfoENS_3ISD10ArgFlagsTyERNS_7CCStateE.exit: ; preds = %_ZL32applyStackPassedSmallTypeDAGHackN4llvm3EVTERNS_3MVTES2_.exit, %17
  ret i1 %16
}